target datalayout = "e-m:e-p270:32:32-p271:32:32-p272:64:64-i64:64-i128:128-f80:128-n8:16:32:64-S128"
target triple = "x86_64-unknown-linux-gnu"

%struct.tm = type { i32, i32, i32, i32, i32, i32, i32, i32, i32, i64, ptr }

; Function Attrs: mustprogress nounwind uwtable
define dso_local noundef zeroext i1 @_ZN2EA4StdC5IsDSTEv() #3 {
entry:
  %nTime = alloca i64, align 8
  %pTime = alloca ptr, align 8
  %call = call i64 @time(ptr noundef null) #1
  store i64 %call, ptr %nTime, align 8
  %call1 = call ptr @localtime(ptr noundef %nTime) #1
  store ptr %call1, ptr %pTime, align 8
  %0 = load ptr, ptr %pTime, align 8
  %tm_isdst = getelementptr inbounds %struct.tm, ptr %0, i32 0, i32 8
  %1 = load i32, ptr %tm_isdst, align 8
  %cmp = icmp sgt i32 %1, 0
  ret i1 %cmp
}