; Function Attrs: mustprogress nounwind uwtable
define dso_local noundef zeroext i1 @_ZN2EA4StdC5IsDSTEv() local_unnamed_addr #3 {
entry:
  %nTime = alloca i64, align 8
  %call = tail call i64 @time(ptr noundef null) #19
  store i64 %call, ptr %nTime, align 8
  %call1 = call ptr @localtime(ptr noundef nonnull %nTime) #19
  %tm_isdst = getelementptr inbounds nuw i8, ptr %call1, i64 32
  %0 = load i32, ptr %tm_isdst, align 8
  %cmp = icmp sgt i32 %0, 0
  ret i1 %cmp
}